target datalayout = "e-m:e-p270:32:32-p271:32:32-p272:64:64-i64:64-i128:128-f80:128-n8:16:32:64-S128"
target triple = "x86_64-pc-linux-gnu"

@_ZN9Arguments18_system_propertiesE = hidden global ptr null, align 8
@_ZN9Arguments5_modeE = hidden global i32 1, align 4
@_ZN9Arguments25_AlwaysCompileLoopMethodsE = hidden global i8 0, align 1
@AlwaysCompileLoopMethods = external global i8, align 1
@_ZN9Arguments22_UseOnStackReplacementE = hidden global i8 0, align 1
@UseOnStackReplacement = external global i8, align 1
@_ZN9Arguments22_BackgroundCompilationE = hidden global i8 0, align 1
@BackgroundCompilation = external global i8, align 1
@_ZN9Arguments13_ClipInliningE = hidden global i8 0, align 1
@ClipInlining = external global i8, align 1
@.str.26 = private unnamed_addr constant [13 x i8] c"java.vm.info\00", align 1
@g_assert_poison = external global ptr, align 8
@.str.61 = private unnamed_addr constant [40 x i8] c"src/hotspot/share/runtime/arguments.cpp\00", align 1
@UseInterpreter = external global i8, align 1
@UseCompiler = external global i8, align 1
@UseLoopCounter = external global i8, align 1

; Function Attrs: mustprogress nounwind uwtable
define hidden void @_ZN9Arguments14set_mode_flagsENS_4ModeE(i32 noundef %0) #1 align 2 {
  %2 = alloca i32, align 4
  store i32 %0, ptr %2, align 4
  %3 = load i32, ptr %2, align 4
  store i32 %3, ptr @_ZN9Arguments5_modeE, align 4
  %4 = call noundef ptr @_ZN19Abstract_VM_Version14vm_info_stringEv()
  call void @_ZN9Arguments23PropertyList_unique_addEPP14SystemPropertyPKcS4_NS_18PropertyAppendableENS_17PropertyWriteableENS_16PropertyInternalE(ptr noundef @_ZN9Arguments18_system_propertiesE, ptr noundef @.str.26, ptr noundef %4, i32 noundef 1, i32 noundef 1, i32 noundef 1)
  store i8 1, ptr @UseInterpreter, align 1
  store i8 1, ptr @UseCompiler, align 1
  store i8 1, ptr @UseLoopCounter, align 1
  %5 = load i8, ptr @_ZN9Arguments13_ClipInliningE, align 1
  %6 = trunc i8 %5 to i1
  %7 = zext i1 %6 to i8
  store i8 %7, ptr @ClipInlining, align 1
  %8 = load i8, ptr @_ZN9Arguments25_AlwaysCompileLoopMethodsE, align 1
  %9 = trunc i8 %8 to i1
  %10 = zext i1 %9 to i8
  store i8 %10, ptr @AlwaysCompileLoopMethods, align 1
  %11 = load i8, ptr @_ZN9Arguments22_UseOnStackReplacementE, align 1
  %12 = trunc i8 %11 to i1
  %13 = zext i1 %12 to i8
  store i8 %13, ptr @UseOnStackReplacement, align 1
  %14 = load i8, ptr @_ZN9Arguments22_BackgroundCompilationE, align 1
  %15 = trunc i8 %14 to i1
  %16 = zext i1 %15 to i8
  store i8 %16, ptr @BackgroundCompilation, align 1
  %17 = load i32, ptr %2, align 4
  switch i32 %17, label %18 [
    i32 0, label %22
    i32 1, label %23
    i32 2, label %24
  ]

18:                                               ; preds = %1
  br label %19

19:                                               ; preds = %18
  %20 = load ptr, ptr @g_assert_poison, align 8
  store i8 88, ptr %20, align 1
  call void @_Z28report_should_not_reach_herePKci(ptr noundef @.str.61, i32 noundef 1333) #14
  unreachable

21:                                               ; No predecessors!
  br label %25

22:                                               ; preds = %1
  store i8 0, ptr @UseCompiler, align 1
  store i8 0, ptr @UseLoopCounter, align 1
  store i8 0, ptr @AlwaysCompileLoopMethods, align 1
  store i8 0, ptr @UseOnStackReplacement, align 1
  br label %25

23:                                               ; preds = %1
  br label %25

24:                                               ; preds = %1
  store i8 0, ptr @UseInterpreter, align 1
  store i8 0, ptr @BackgroundCompilation, align 1
  store i8 0, ptr @ClipInlining, align 1
  br label %25

25:                                               ; preds = %24, %23, %22, %21
  ret void
}