; Function Attrs: mustprogress nounwind uwtable
define hidden void @_ZN9Arguments14set_mode_flagsENS_4ModeE(i32 noundef %0) local_unnamed_addr #0 align 2 {
  store i32 %0, ptr @_ZN9Arguments5_modeE, align 4
  %2 = tail call noundef ptr @_ZN19Abstract_VM_Version14vm_info_stringEv() #31
  tail call void @_ZN9Arguments23PropertyList_unique_addEPP14SystemPropertyPKcS4_NS_18PropertyAppendableENS_17PropertyWriteableENS_16PropertyInternalE(ptr noundef nonnull @_ZN9Arguments18_system_propertiesE, ptr noundef nonnull @.str.26, ptr noundef %2, i32 noundef 1, i32 noundef 1, i32 noundef 1)
  store i8 1, ptr @UseInterpreter, align 1
  store i8 1, ptr @UseCompiler, align 1
  store i8 1, ptr @UseLoopCounter, align 1
  %3 = load i8, ptr @_ZN9Arguments13_ClipInliningE, align 1
  %4 = and i8 %3, 1
  store i8 %4, ptr @ClipInlining, align 1
  %5 = load i8, ptr @_ZN9Arguments25_AlwaysCompileLoopMethodsE, align 1
  %6 = and i8 %5, 1
  store i8 %6, ptr @AlwaysCompileLoopMethods, align 1
  %7 = load i8, ptr @_ZN9Arguments22_UseOnStackReplacementE, align 1
  %8 = and i8 %7, 1
  store i8 %8, ptr @UseOnStackReplacement, align 1
  %9 = load i8, ptr @_ZN9Arguments22_BackgroundCompilationE, align 1
  %10 = and i8 %9, 1
  store i8 %10, ptr @BackgroundCompilation, align 1
  switch i32 %0, label %11 [
    i32 0, label %13
    i32 1, label %14
    i32 2, label %.sink.split
  ]

11:                                               ; preds = %1
  %12 = load ptr, ptr @g_assert_poison, align 8
  store i8 88, ptr %12, align 1
  tail call void @_Z28report_should_not_reach_herePKci(ptr noundef nonnull @.str.61, i32 noundef 1333) #33
  unreachable

13:                                               ; preds = %1
  store i8 0, ptr @UseCompiler, align 1
  br label %.sink.split

.sink.split:                                      ; preds = %1, %13
  %UseInterpreter.sink = phi ptr [ @UseLoopCounter, %13 ], [ @UseInterpreter, %1 ]
  %BackgroundCompilation.sink = phi ptr [ @AlwaysCompileLoopMethods, %13 ], [ @BackgroundCompilation, %1 ]
  %ClipInlining.sink = phi ptr [ @UseOnStackReplacement, %13 ], [ @ClipInlining, %1 ]
  store i8 0, ptr %UseInterpreter.sink, align 1
  store i8 0, ptr %BackgroundCompilation.sink, align 1
  store i8 0, ptr %ClipInlining.sink, align 1
  br label %14

14:                                               ; preds = %.sink.split, %1
  ret void
}